target datalayout = "e-m:e-p270:32:32-p271:32:32-p272:64:64-i64:64-i128:128-f80:128-n8:16:32:64-S128"
target triple = "x86_64-pc-linux-gnu"

%"class.o3dgc::Adaptive_Bit_Model" = type { i32, i32, i32, i32, i32 }

; Function Attrs: mustprogress nounwind uwtable
define hidden void @_ZN5o3dgc18Adaptive_Bit_Model5resetEv(ptr noundef nonnull align 4 dereferenceable(20) %0) #3 align 2 {
  %2 = alloca ptr, align 8
  store ptr %0, ptr %2, align 8
  %3 = load ptr, ptr %2, align 8
  %4 = getelementptr inbounds nuw %"class.o3dgc::Adaptive_Bit_Model", ptr %3, i32 0, i32 3
  store i32 1, ptr %4, align 4
  %5 = getelementptr inbounds nuw %"class.o3dgc::Adaptive_Bit_Model", ptr %3, i32 0, i32 4
  store i32 2, ptr %5, align 4
  %6 = getelementptr inbounds nuw %"class.o3dgc::Adaptive_Bit_Model", ptr %3, i32 0, i32 2
  store i32 4096, ptr %6, align 4
  %7 = getelementptr inbounds nuw %"class.o3dgc::Adaptive_Bit_Model", ptr %3, i32 0, i32 1
  store i32 4, ptr %7, align 4
  %8 = getelementptr inbounds nuw %"class.o3dgc::Adaptive_Bit_Model", ptr %3, i32 0, i32 0
  store i32 4, ptr %8, align 4
  ret void
}

; Function Attrs: mustprogress uwtable
define hidden void @_ZN5o3dgc18Adaptive_Bit_ModelC2Ev(ptr noundef nonnull align 4 dereferenceable(20) %0) unnamed_addr #0 align 2 {
  %2 = alloca ptr, align 8
  store ptr %0, ptr %2, align 8
  %3 = load ptr, ptr %2, align 8
  call void @_ZN5o3dgc18Adaptive_Bit_Model5resetEv(ptr noundef nonnull align 4 dereferenceable(20) %3)
  ret void
}